target datalayout = "e-m:e-p270:32:32-p271:32:32-p272:64:64-i64:64-i128:128-f80:128-n8:16:32:64-S128"
target triple = "x86_64-pc-linux-gnu"

%struct.nstime_t = type { i64 }
%struct.malloc_mutex_s = type { %union.anon }
%union.anon = type { %struct.anon }
%struct.anon = type { %struct.mutex_prof_data_t, %struct.atomic_b_t, %union.pthread_mutex_t }
%struct.mutex_prof_data_t = type { %struct.nstime_t, %struct.nstime_t, i64, i64, i32, %struct.atomic_u32_t, i64, ptr, i64 }
%struct.atomic_u32_t = type { i32 }
%struct.atomic_b_t = type { i8 }
%union.pthread_mutex_t = type { %struct.__pthread_mutex_s }
%struct.__pthread_mutex_s = type { i32, i32, i32, i32, i32, i16, i16, %struct.__pthread_internal_list }
%struct.__pthread_internal_list = type { ptr, ptr }

@duckdb_je_opt_mutex_max_spin = global i64 600, align 8
@duckdb_je_ncpus = external global i32, align 4
@duckdb_je_nstime_update = external constant ptr, align 8

; Function Attrs: alwaysinline nounwind uwtable
define internal void @atomic_store_b(ptr noundef %0, i1 noundef zeroext %1, i32 noundef %2) #3 {
  %4 = alloca ptr, align 8
  %5 = alloca i8, align 1
  %6 = alloca i32, align 4
  store ptr %0, ptr %4, align 8, !tbaa !8
  %7 = zext i1 %1 to i8
  store i8 %7, ptr %5, align 1, !tbaa !21
  store i32 %2, ptr %6, align 4, !tbaa !9
  %8 = load ptr, ptr %4, align 8, !tbaa !8
  %9 = getelementptr inbounds nuw %struct.atomic_b_t, ptr %8, i32 0, i32 0
  %10 = load i32, ptr %6, align 4, !tbaa !9
  %11 = call i32 @atomic_enum_to_builtin(i32 noundef %10)
  switch i32 %11, label %12 [
    i32 3, label %14
    i32 5, label %16
  ]

12:                                               ; preds = %3
  %13 = load i8, ptr %5, align 1
  store atomic i8 %13, ptr %9 monotonic, align 1
  br label %18

14:                                               ; preds = %3
  %15 = load i8, ptr %5, align 1
  store atomic i8 %15, ptr %9 release, align 1
  br label %18

16:                                               ; preds = %3
  %17 = load i8, ptr %5, align 1
  store atomic i8 %17, ptr %9 seq_cst, align 1
  br label %18

18:                                               ; preds = %16, %14, %12
  ret void
}

; Function Attrs: alwaysinline nounwind uwtable
define internal i32 @atomic_enum_to_builtin(i32 noundef %0) #3 {
  %2 = alloca i32, align 4
  %3 = alloca i32, align 4
  store i32 %0, ptr %3, align 4, !tbaa !9
  %4 = load i32, ptr %3, align 4, !tbaa !9
  switch i32 %4, label %10 [
    i32 0, label %5
    i32 1, label %6
    i32 2, label %7
    i32 3, label %8
    i32 4, label %9
  ]

5:                                                ; preds = %1
  store i32 0, ptr %2, align 4
  br label %12

6:                                                ; preds = %1
  store i32 2, ptr %2, align 4
  br label %12

7:                                                ; preds = %1
  store i32 3, ptr %2, align 4
  br label %12

8:                                                ; preds = %1
  store i32 4, ptr %2, align 4
  br label %12

9:                                                ; preds = %1
  store i32 5, ptr %2, align 4
  br label %12

10:                                               ; preds = %1
  br label %11

11:                                               ; preds = %10
  unreachable

12:                                               ; preds = %5, %6, %7, %8, %9
  %13 = load i32, ptr %2, align 4
  ret i32 %13
}

; Function Attrs: inlinehint nounwind uwtable
define internal void @malloc_mutex_lock_final(ptr noundef %0) #2 {
  %2 = alloca ptr, align 8
  store ptr %0, ptr %2, align 8, !tbaa !3
  %3 = load ptr, ptr %2, align 8, !tbaa !3
  %4 = getelementptr inbounds nuw %struct.malloc_mutex_s, ptr %3, i32 0, i32 0
  %5 = getelementptr inbounds nuw %struct.anon, ptr %4, i32 0, i32 2
  %6 = call i32 @pthread_mutex_lock(ptr noundef %5) #8
  %7 = load ptr, ptr %2, align 8, !tbaa !3
  %8 = getelementptr inbounds nuw %struct.malloc_mutex_s, ptr %7, i32 0, i32 0
  %9 = getelementptr inbounds nuw %struct.anon, ptr %8, i32 0, i32 1
  call void @atomic_store_b(ptr noundef %9, i1 noundef zeroext true, i32 noundef 0)
  ret void
}

; Function Attrs: alwaysinline nounwind uwtable
define internal i32 @atomic_fetch_sub_u32(ptr noundef %0, i32 noundef %1, i32 noundef %2) #3 {
  %4 = alloca ptr, align 8
  %5 = alloca i32, align 4
  %6 = alloca i32, align 4
  %7 = alloca i32, align 4
  %8 = alloca i32, align 4
  store ptr %0, ptr %4, align 8, !tbaa !8
  store i32 %1, ptr %5, align 4, !tbaa !9
  store i32 %2, ptr %6, align 4, !tbaa !9
  %9 = load ptr, ptr %4, align 8, !tbaa !8
  %10 = getelementptr inbounds nuw %struct.atomic_u32_t, ptr %9, i32 0, i32 0
  %11 = load i32, ptr %6, align 4, !tbaa !9
  %12 = call i32 @atomic_enum_to_builtin(i32 noundef %11)
  %13 = load i32, ptr %5, align 4, !tbaa !9
  store i32 %13, ptr %7, align 4, !tbaa !9
  switch i32 %12, label %14 [
    i32 1, label %17
    i32 2, label %17
    i32 3, label %20
    i32 4, label %23
    i32 5, label %26
  ]

14:                                               ; preds = %3
  %15 = load i32, ptr %7, align 4
  %16 = atomicrmw sub ptr %10, i32 %15 monotonic, align 4
  store i32 %16, ptr %8, align 4
  br label %29

17:                                               ; preds = %3, %3
  %18 = load i32, ptr %7, align 4
  %19 = atomicrmw sub ptr %10, i32 %18 acquire, align 4
  store i32 %19, ptr %8, align 4
  br label %29

20:                                               ; preds = %3
  %21 = load i32, ptr %7, align 4
  %22 = atomicrmw sub ptr %10, i32 %21 release, align 4
  store i32 %22, ptr %8, align 4
  br label %29

23:                                               ; preds = %3
  %24 = load i32, ptr %7, align 4
  %25 = atomicrmw sub ptr %10, i32 %24 acq_rel, align 4
  store i32 %25, ptr %8, align 4
  br label %29

26:                                               ; preds = %3
  %27 = load i32, ptr %7, align 4
  %28 = atomicrmw sub ptr %10, i32 %27 seq_cst, align 4
  store i32 %28, ptr %8, align 4
  br label %29

29:                                               ; preds = %26, %23, %20, %17, %14
  %30 = load i32, ptr %8, align 4, !tbaa !9
  ret i32 %30
}

; Function Attrs: alwaysinline nounwind uwtable
define internal i32 @atomic_fetch_add_u32(ptr noundef %0, i32 noundef %1, i32 noundef %2) #3 {
  %4 = alloca ptr, align 8
  %5 = alloca i32, align 4
  %6 = alloca i32, align 4
  %7 = alloca i32, align 4
  %8 = alloca i32, align 4
  store ptr %0, ptr %4, align 8, !tbaa !8
  store i32 %1, ptr %5, align 4, !tbaa !9
  store i32 %2, ptr %6, align 4, !tbaa !9
  %9 = load ptr, ptr %4, align 8, !tbaa !8
  %10 = getelementptr inbounds nuw %struct.atomic_u32_t, ptr %9, i32 0, i32 0
  %11 = load i32, ptr %6, align 4, !tbaa !9
  %12 = call i32 @atomic_enum_to_builtin(i32 noundef %11)
  %13 = load i32, ptr %5, align 4, !tbaa !9
  store i32 %13, ptr %7, align 4, !tbaa !9
  switch i32 %12, label %14 [
    i32 1, label %17
    i32 2, label %17
    i32 3, label %20
    i32 4, label %23
    i32 5, label %26
  ]

14:                                               ; preds = %3
  %15 = load i32, ptr %7, align 4
  %16 = atomicrmw add ptr %10, i32 %15 monotonic, align 4
  store i32 %16, ptr %8, align 4
  br label %29

17:                                               ; preds = %3, %3
  %18 = load i32, ptr %7, align 4
  %19 = atomicrmw add ptr %10, i32 %18 acquire, align 4
  store i32 %19, ptr %8, align 4
  br label %29

20:                                               ; preds = %3
  %21 = load i32, ptr %7, align 4
  %22 = atomicrmw add ptr %10, i32 %21 release, align 4
  store i32 %22, ptr %8, align 4
  br label %29

23:                                               ; preds = %3
  %24 = load i32, ptr %7, align 4
  %25 = atomicrmw add ptr %10, i32 %24 acq_rel, align 4
  store i32 %25, ptr %8, align 4
  br label %29

26:                                               ; preds = %3
  %27 = load i32, ptr %7, align 4
  %28 = atomicrmw add ptr %10, i32 %27 seq_cst, align 4
  store i32 %28, ptr %8, align 4
  br label %29

29:                                               ; preds = %26, %23, %20, %17, %14
  %30 = load i32, ptr %8, align 4, !tbaa !9
  ret i32 %30
}

; Function Attrs: inlinehint nounwind uwtable
define internal zeroext i1 @malloc_mutex_trylock_final(ptr noundef %0) #2 {
  %2 = alloca ptr, align 8
  store ptr %0, ptr %2, align 8, !tbaa !3
  %3 = load ptr, ptr %2, align 8, !tbaa !3
  %4 = getelementptr inbounds nuw %struct.malloc_mutex_s, ptr %3, i32 0, i32 0
  %5 = getelementptr inbounds nuw %struct.anon, ptr %4, i32 0, i32 2
  %6 = call i32 @pthread_mutex_trylock(ptr noundef %5) #8
  %7 = icmp ne i32 %6, 0
  ret i1 %7
}

; Function Attrs: alwaysinline nounwind uwtable
define internal zeroext i1 @atomic_load_b(ptr noundef %0, i32 noundef %1) #3 {
  %3 = alloca ptr, align 8
  %4 = alloca i32, align 4
  %5 = alloca i8, align 1
  store ptr %0, ptr %3, align 8, !tbaa !8
  store i32 %1, ptr %4, align 4, !tbaa !9
  call void @llvm.lifetime.start.p0(i64 1, ptr %5) #8
  %6 = load ptr, ptr %3, align 8, !tbaa !8
  %7 = getelementptr inbounds nuw %struct.atomic_b_t, ptr %6, i32 0, i32 0
  %8 = load i32, ptr %4, align 4, !tbaa !9
  %9 = call i32 @atomic_enum_to_builtin(i32 noundef %8)
  switch i32 %9, label %10 [
    i32 1, label %12
    i32 2, label %12
    i32 5, label %14
  ]

10:                                               ; preds = %2
  %11 = load atomic i8, ptr %7 monotonic, align 1
  store i8 %11, ptr %5, align 1
  br label %16

12:                                               ; preds = %2, %2
  %13 = load atomic i8, ptr %7 acquire, align 1
  store i8 %13, ptr %5, align 1
  br label %16

14:                                               ; preds = %2
  %15 = load atomic i8, ptr %7 seq_cst, align 1
  store i8 %15, ptr %5, align 1
  br label %16

16:                                               ; preds = %14, %12, %10
  %17 = load i8, ptr %5, align 1, !tbaa !21, !range !23, !noundef !24
  %18 = trunc i8 %17 to i1
  call void @llvm.lifetime.end.p0(i64 1, ptr %5) #8
  ret i1 %18
}

; Function Attrs: inlinehint nounwind uwtable
define internal void @spin_cpu_spinwait() #2 {
  call void asm sideeffect "pause", "~{dirflag},~{fpsr},~{flags}"() #8, !srcloc !20
  ret void
}

; Function Attrs: nounwind uwtable
define void @duckdb_je_malloc_mutex_lock_slow(ptr noundef %0) #0 {
  %2 = alloca ptr, align 8
  %3 = alloca ptr, align 8
  %4 = alloca %struct.nstime_t, align 8
  %5 = alloca i32, align 4
  %6 = alloca i32, align 4
  %7 = alloca %struct.nstime_t, align 8
  %8 = alloca i32, align 4
  %9 = alloca %struct.nstime_t, align 8
  store ptr %0, ptr %2, align 8, !tbaa !3
  call void @llvm.lifetime.start.p0(i64 8, ptr %3) #8
  %10 = load ptr, ptr %2, align 8, !tbaa !3
  %11 = getelementptr inbounds nuw %struct.malloc_mutex_s, ptr %10, i32 0, i32 0
  %12 = getelementptr inbounds nuw %struct.anon, ptr %11, i32 0, i32 0
  store ptr %12, ptr %3, align 8, !tbaa !8
  call void @llvm.lifetime.start.p0(i64 8, ptr %4) #8
  %13 = load i32, ptr @duckdb_je_ncpus, align 4, !tbaa !9
  %14 = icmp eq i32 %13, 1
  br i1 %14, label %15, label %16

15:                                               ; preds = %1
  br label %43

16:                                               ; preds = %1
  store i32 0, ptr %5, align 4, !tbaa !9
  br label %17

17:                                               ; preds = %40, %16
  call void @spin_cpu_spinwait()
  %18 = load ptr, ptr %2, align 8, !tbaa !3
  %19 = getelementptr inbounds nuw %struct.malloc_mutex_s, ptr %18, i32 0, i32 0
  %20 = getelementptr inbounds nuw %struct.anon, ptr %19, i32 0, i32 1
  %21 = call zeroext i1 @atomic_load_b(ptr noundef %20, i32 noundef 0)
  br i1 %21, label %30, label %22

22:                                               ; preds = %17
  %23 = load ptr, ptr %2, align 8, !tbaa !3
  %24 = call zeroext i1 @malloc_mutex_trylock_final(ptr noundef %23)
  br i1 %24, label %30, label %25

25:                                               ; preds = %22
  %26 = load ptr, ptr %3, align 8, !tbaa !8
  %27 = getelementptr inbounds nuw %struct.mutex_prof_data_t, ptr %26, i32 0, i32 3
  %28 = load i64, ptr %27, align 8, !tbaa !11
  %29 = add i64 %28, 1
  store i64 %29, ptr %27, align 8, !tbaa !11
  store i32 1, ptr %6, align 4
  br label %88

30:                                               ; preds = %22, %17
  br label %31

31:                                               ; preds = %30
  %32 = load i32, ptr %5, align 4, !tbaa !9
  %33 = add nsw i32 %32, 1
  store i32 %33, ptr %5, align 4, !tbaa !9
  %34 = sext i32 %32 to i64
  %35 = load i64, ptr @duckdb_je_opt_mutex_max_spin, align 8, !tbaa !17
  %36 = icmp slt i64 %34, %35
  br i1 %36, label %40, label %37

37:                                               ; preds = %31
  %38 = load i64, ptr @duckdb_je_opt_mutex_max_spin, align 8, !tbaa !17
  %39 = icmp eq i64 %38, -1
  br label %40

40:                                               ; preds = %37, %31
  %41 = phi i1 [ true, %31 ], [ %39, %37 ]
  br i1 %41, label %17, label %42

42:                                               ; preds = %40
  br label %43

43:                                               ; preds = %42, %15
  call void @duckdb_je_nstime_init_update(ptr noundef %4)
  call void @duckdb_je_nstime_copy(ptr noundef %7, ptr noundef %4)
  %44 = load ptr, ptr %3, align 8, !tbaa !8
  %45 = getelementptr inbounds nuw %struct.mutex_prof_data_t, ptr %44, i32 0, i32 5
  %46 = call i32 @atomic_fetch_add_u32(ptr noundef %45, i32 noundef 1, i32 noundef 0)
  %47 = add i32 %46, 1
  store i32 %47, ptr %8, align 4, !tbaa !9
  %48 = load ptr, ptr %2, align 8, !tbaa !3
  %49 = call zeroext i1 @malloc_mutex_trylock_final(ptr noundef %48)
  br i1 %49, label %58, label %50

50:                                               ; preds = %43
  %51 = load ptr, ptr %3, align 8, !tbaa !8
  %52 = getelementptr inbounds nuw %struct.mutex_prof_data_t, ptr %51, i32 0, i32 5
  %53 = call i32 @atomic_fetch_sub_u32(ptr noundef %52, i32 noundef 1, i32 noundef 0)
  %54 = load ptr, ptr %3, align 8, !tbaa !8
  %55 = getelementptr inbounds nuw %struct.mutex_prof_data_t, ptr %54, i32 0, i32 3
  %56 = load i64, ptr %55, align 8, !tbaa !11
  %57 = add i64 %56, 1
  store i64 %57, ptr %55, align 8, !tbaa !11
  store i32 1, ptr %6, align 4
  br label %88

58:                                               ; preds = %43
  %59 = load ptr, ptr %2, align 8, !tbaa !3
  call void @malloc_mutex_lock_final(ptr noundef %59)
  %60 = load ptr, ptr %3, align 8, !tbaa !8
  %61 = getelementptr inbounds nuw %struct.mutex_prof_data_t, ptr %60, i32 0, i32 5
  %62 = call i32 @atomic_fetch_sub_u32(ptr noundef %61, i32 noundef 1, i32 noundef 0)
  %63 = load ptr, ptr @duckdb_je_nstime_update, align 8, !tbaa !8
  call void %63(ptr noundef %7)
  call void @duckdb_je_nstime_copy(ptr noundef %9, ptr noundef %7)
  call void @duckdb_je_nstime_subtract(ptr noundef %9, ptr noundef %4)
  %64 = load ptr, ptr %3, align 8, !tbaa !8
  %65 = getelementptr inbounds nuw %struct.mutex_prof_data_t, ptr %64, i32 0, i32 2
  %66 = load i64, ptr %65, align 8, !tbaa !18
  %67 = add i64 %66, 1
  store i64 %67, ptr %65, align 8, !tbaa !18
  %68 = load ptr, ptr %3, align 8, !tbaa !8
  %69 = getelementptr inbounds nuw %struct.mutex_prof_data_t, ptr %68, i32 0, i32 0
  call void @duckdb_je_nstime_add(ptr noundef %69, ptr noundef %9)
  %70 = load ptr, ptr %3, align 8, !tbaa !8
  %71 = getelementptr inbounds nuw %struct.mutex_prof_data_t, ptr %70, i32 0, i32 1
  %72 = call i32 @duckdb_je_nstime_compare(ptr noundef %71, ptr noundef %9)
  %73 = icmp slt i32 %72, 0
  br i1 %73, label %74, label %77

74:                                               ; preds = %58
  %75 = load ptr, ptr %3, align 8, !tbaa !8
  %76 = getelementptr inbounds nuw %struct.mutex_prof_data_t, ptr %75, i32 0, i32 1
  call void @duckdb_je_nstime_copy(ptr noundef %76, ptr noundef %9)
  br label %77

77:                                               ; preds = %74, %58
  %78 = load i32, ptr %8, align 4, !tbaa !9
  %79 = load ptr, ptr %3, align 8, !tbaa !8
  %80 = getelementptr inbounds nuw %struct.mutex_prof_data_t, ptr %79, i32 0, i32 4
  %81 = load i32, ptr %80, align 8, !tbaa !19
  %82 = icmp ugt i32 %78, %81
  br i1 %82, label %83, label %87

83:                                               ; preds = %77
  %84 = load i32, ptr %8, align 4, !tbaa !9
  %85 = load ptr, ptr %3, align 8, !tbaa !8
  %86 = getelementptr inbounds nuw %struct.mutex_prof_data_t, ptr %85, i32 0, i32 4
  store i32 %84, ptr %86, align 8, !tbaa !19
  br label %87

87:                                               ; preds = %83, %77
  store i32 0, ptr %6, align 4
  br label %88

88:                                               ; preds = %87, %50, %25
  call void @llvm.lifetime.end.p0(i64 8, ptr %4) #8
  call void @llvm.lifetime.end.p0(i64 8, ptr %3) #8
  %89 = load i32, ptr %6, align 4
  switch i32 %89, label %91 [
    i32 0, label %90
    i32 1, label %90
  ]

90:                                               ; preds = %88, %88
  ret void

91:                                               ; preds = %88
  unreachable
}