; Function Attrs: nounwind uwtable
define void @duckdb_je_malloc_mutex_lock_slow(ptr noundef %0) local_unnamed_addr #0 {
  %2 = alloca %struct.nstime_t, align 8
  %3 = alloca %struct.nstime_t, align 8
  %4 = alloca %struct.nstime_t, align 8
  call void @llvm.lifetime.start.p0(i64 8, ptr nonnull %2) #7
  %5 = load i32, ptr @duckdb_je_ncpus, align 4, !tbaa !3
  %6 = icmp eq i32 %5, 1
  br i1 %6, label %.loopexit, label %.preheader

.preheader:                                       ; preds = %1
  %7 = getelementptr inbounds nuw i8, ptr %0, i64 64
  %8 = getelementptr inbounds nuw i8, ptr %0, i64 72
  br label %9

9:                                                ; preds = %.preheader, %18
  %indvars.iv = phi i64 [ 0, %.preheader ], [ %indvars.iv.next, %18 ]
  tail call void asm sideeffect "pause", "~{dirflag},~{fpsr},~{flags}"() #7, !srcloc !7
  %10 = load atomic i8, ptr %7 monotonic, align 1
  %11 = trunc i8 %10 to i1
  br i1 %11, label %18, label %12

12:                                               ; preds = %9
  %13 = tail call i32 @pthread_mutex_trylock(ptr noundef nonnull %8) #7
  %.not = icmp eq i32 %13, 0
  br i1 %.not, label %14, label %18

14:                                               ; preds = %12
  %15 = getelementptr inbounds nuw i8, ptr %0, i64 24
  %16 = load i64, ptr %15, align 8, !tbaa !8
  %17 = add i64 %16, 1
  store i64 %17, ptr %15, align 8, !tbaa !8
  br label %50

18:                                               ; preds = %9, %12
  %indvars.iv.next = add nuw nsw i64 %indvars.iv, 1
  %19 = load i64, ptr @duckdb_je_opt_mutex_max_spin, align 8, !tbaa !15
  %20 = icmp sgt i64 %19, %indvars.iv
  %21 = icmp eq i64 %19, -1
  %22 = or i1 %20, %21
  br i1 %22, label %9, label %.loopexit

.loopexit:                                        ; preds = %18, %1
  call void @duckdb_je_nstime_init_update(ptr noundef nonnull %2) #7
  call void @duckdb_je_nstime_copy(ptr noundef nonnull %3, ptr noundef nonnull %2) #7
  %23 = getelementptr inbounds nuw i8, ptr %0, i64 36
  %24 = atomicrmw add ptr %23, i32 1 monotonic, align 4
  %25 = add i32 %24, 1
  %26 = getelementptr inbounds nuw i8, ptr %0, i64 72
  %27 = call i32 @pthread_mutex_trylock(ptr noundef nonnull %26) #7
  %.not19 = icmp eq i32 %27, 0
  br i1 %.not19, label %28, label %33

28:                                               ; preds = %.loopexit
  %29 = atomicrmw sub ptr %23, i32 1 monotonic, align 4
  %30 = getelementptr inbounds nuw i8, ptr %0, i64 24
  %31 = load i64, ptr %30, align 8, !tbaa !8
  %32 = add i64 %31, 1
  store i64 %32, ptr %30, align 8, !tbaa !8
  br label %50

33:                                               ; preds = %.loopexit
  %34 = call i32 @pthread_mutex_lock(ptr noundef nonnull %26) #7
  %35 = getelementptr inbounds nuw i8, ptr %0, i64 64
  store atomic i8 1, ptr %35 monotonic, align 1
  %36 = atomicrmw sub ptr %23, i32 1 monotonic, align 4
  %37 = load ptr, ptr @duckdb_je_nstime_update, align 8, !tbaa !16
  call void %37(ptr noundef nonnull %3) #7
  call void @duckdb_je_nstime_copy(ptr noundef nonnull %4, ptr noundef nonnull %3) #7
  call void @duckdb_je_nstime_subtract(ptr noundef nonnull %4, ptr noundef nonnull %2) #7
  %38 = getelementptr inbounds nuw i8, ptr %0, i64 16
  %39 = load i64, ptr %38, align 8, !tbaa !17
  %40 = add i64 %39, 1
  store i64 %40, ptr %38, align 8, !tbaa !17
  call void @duckdb_je_nstime_add(ptr noundef nonnull %0, ptr noundef nonnull %4) #7
  %41 = getelementptr inbounds nuw i8, ptr %0, i64 8
  %42 = call i32 @duckdb_je_nstime_compare(ptr noundef nonnull %41, ptr noundef nonnull %4) #7
  %43 = icmp slt i32 %42, 0
  br i1 %43, label %44, label %45

44:                                               ; preds = %33
  call void @duckdb_je_nstime_copy(ptr noundef nonnull %41, ptr noundef nonnull %4) #7
  br label %45

45:                                               ; preds = %44, %33
  %46 = getelementptr inbounds nuw i8, ptr %0, i64 32
  %47 = load i32, ptr %46, align 8, !tbaa !18
  %48 = icmp ugt i32 %25, %47
  br i1 %48, label %49, label %50

49:                                               ; preds = %45
  store i32 %25, ptr %46, align 8, !tbaa !18
  br label %50

50:                                               ; preds = %45, %49, %28, %14
  call void @llvm.lifetime.end.p0(i64 8, ptr nonnull %2) #7
  ret void
}